; Function Attrs: nofree nosync nounwind memory(readwrite, inaccessiblemem: none) uwtable
define internal fastcc i32 @numst(ptr noundef captures(none) initializes((4, 8)) %0, i32 noundef %1) unnamed_addr #3 {
  %3 = add i32 %1, 1
  %4 = getelementptr inbounds nuw i8, ptr %0, i64 4
  store i32 %1, ptr %4, align 4
  %5 = getelementptr inbounds nuw i8, ptr %0, i64 24
  %.09 = load ptr, ptr %5, align 8
  %.not10 = icmp eq ptr %.09, null
  br i1 %.not10, label %._crit_edge, label %.lr.ph

.lr.ph:                                           ; preds = %2, %.lr.ph
  %.012 = phi ptr [ %.0, %.lr.ph ], [ %.09, %2 ]
  %.0811 = phi i32 [ %6, %.lr.ph ], [ %3, %2 ]
  %6 = tail call fastcc i32 @numst(ptr noundef nonnull %.012, i32 noundef %.0811)
  %7 = getelementptr inbounds nuw i8, ptr %.012, i64 32
  %.0 = load ptr, ptr %7, align 8
  %.not = icmp eq ptr %.0, null
  br i1 %.not, label %._crit_edge, label %.lr.ph, !llvm.loop !26

._crit_edge:                                      ; preds = %.lr.ph, %2
  %.08.lcssa = phi i32 [ %3, %2 ], [ %6, %.lr.ph ]
  ret i32 %.08.lcssa
}